; Function Attrs: mustprogress uwtable
define void @_ZN3gmx24AbstractAverageHistogram14makeCumulativeEv(ptr noundef nonnull align 8 dereferenceable(120) %0) local_unnamed_addr #3 align 2 {
  %2 = tail call noundef i32 @_ZNK3gmx20AbstractAnalysisData11columnCountEv(ptr noundef nonnull align 8 dereferenceable(16) %0)
  %3 = icmp sgt i32 %2, 0
  br i1 %3, label %.preheader.lr.ph, label %._crit_edge17

.preheader.lr.ph:                                 ; preds = %1
  %4 = getelementptr inbounds i8, ptr %0, i64 16
  %5 = getelementptr inbounds i8, ptr %0, i64 40
  br label %.preheader

.preheader:                                       ; preds = %.preheader.lr.ph, %._crit_edge
  %.01316 = phi i32 [ 0, %.preheader.lr.ph ], [ %36, %._crit_edge ]
  %6 = load i32, ptr %4, align 8
  %7 = icmp sgt i32 %6, 0
  br i1 %7, label %.lr.ph, label %._crit_edge

.lr.ph:                                           ; preds = %.preheader, %.lr.ph
  %.015 = phi i32 [ %33, %.lr.ph ], [ 0, %.preheader ]
  %.01214 = phi double [ %16, %.lr.ph ], [ 0.000000e+00, %.preheader ]
  %8 = tail call noundef i32 @_ZNK3gmx20AbstractAnalysisData11columnCountEv(ptr noundef nonnull align 8 dereferenceable(16) %0)
  %9 = mul nsw i32 %8, %.015
  %10 = add nsw i32 %9, %.01316
  %11 = sext i32 %10 to i64
  %12 = load ptr, ptr %5, align 8
  %13 = getelementptr inbounds %"class.gmx::AnalysisDataValue", ptr %12, i64 %11
  %14 = load float, ptr %13, align 4
  %15 = fpext float %14 to double
  %16 = fadd double %.01214, %15
  %17 = tail call noundef i32 @_ZNK3gmx20AbstractAnalysisData11columnCountEv(ptr noundef nonnull align 8 dereferenceable(16) %0)
  %18 = mul nsw i32 %17, %.015
  %19 = add nsw i32 %18, %.01316
  %20 = sext i32 %19 to i64
  %21 = load ptr, ptr %5, align 8
  %22 = getelementptr inbounds %"class.gmx::AnalysisDataValue", ptr %21, i64 %20
  tail call void @llvm.memset.p0.i64(ptr noundef nonnull align 8 dereferenceable(16) %22, i8 0, i64 16, i1 false)
  %23 = tail call noundef i32 @_ZNK3gmx20AbstractAnalysisData11columnCountEv(ptr noundef nonnull align 8 dereferenceable(16) %0)
  %24 = mul nsw i32 %23, %.015
  %25 = add nsw i32 %24, %.01316
  %26 = sext i32 %25 to i64
  %27 = load ptr, ptr %5, align 8
  %28 = getelementptr inbounds %"class.gmx::AnalysisDataValue", ptr %27, i64 %26
  %29 = fptrunc double %16 to float
  store float %29, ptr %28, align 8
  %30 = getelementptr inbounds i8, ptr %28, i64 8
  %31 = load i64, ptr %30, align 8
  %32 = or i64 %31, 5
  store i64 %32, ptr %30, align 8
  %33 = add nuw nsw i32 %.015, 1
  %34 = load i32, ptr %4, align 8
  %35 = icmp slt i32 %33, %34
  br i1 %35, label %.lr.ph, label %._crit_edge, !llvm.loop !30

._crit_edge:                                      ; preds = %.lr.ph, %.preheader
  %36 = add nuw nsw i32 %.01316, 1
  %37 = tail call noundef i32 @_ZNK3gmx20AbstractAnalysisData11columnCountEv(ptr noundef nonnull align 8 dereferenceable(16) %0)
  %38 = icmp slt i32 %36, %37
  br i1 %38, label %.preheader, label %._crit_edge17, !llvm.loop !31

._crit_edge17:                                    ; preds = %._crit_edge, %1
  %39 = getelementptr inbounds i8, ptr %0, i64 96
  %40 = load float, ptr %39, align 8
  %41 = getelementptr inbounds i8, ptr %0, i64 104
  %42 = load float, ptr %41, align 8
  %43 = fadd float %40, %42
  tail call void @_ZN3gmx25AbstractAnalysisArrayData8setXAxisEff(ptr noundef nonnull align 8 dereferenceable(94) %0, float noundef %43, float noundef %42)
  ret void
}